target datalayout = "e-m:e-p270:32:32-p271:32:32-p272:64:64-i64:64-i128:128-f80:128-n8:16:32:64-S128"
target triple = "x86_64-pc-linux-gnu"

@proto_register_stun.ett = internal global [5 x ptr] [ptr @ett_stun, ptr @ett_stun_type, ptr @ett_stun_att_all, ptr @ett_stun_att, ptr @ett_stun_att_type], align 16
@.str.187 = private unnamed_addr constant [36 x i8] c"Session Traversal Utilities for NAT\00", align 1
@.str.188 = private unnamed_addr constant [5 x i8] c"STUN\00", align 1
@.str.189 = private unnamed_addr constant [5 x i8] c"stun\00", align 1
@proto_stun = internal global i32 0, align 4
@.str.190 = private unnamed_addr constant [18 x i8] c"STUN DATA message\00", align 1
@heur_subdissector_list = internal global ptr null, align 8
@.str.191 = private unnamed_addr constant [9 x i8] c"stun-tcp\00", align 1
@.str.192 = private unnamed_addr constant [9 x i8] c"stun-udp\00", align 1
@.str.193 = private unnamed_addr constant [12 x i8] c"stunversion\00", align 1
@.str.194 = private unnamed_addr constant [13 x i8] c"Stun Version\00", align 1
@.str.195 = private unnamed_addr constant [28 x i8] c"Stun Version on the Network\00", align 1
@stun_network_version = internal global i32 3, align 4

; Function Attrs: null_pointer_is_valid sspstrong uwtable
define hidden void @proto_register_stun() #0 {
  %1 = alloca ptr, align 8
  %2 = alloca ptr, align 8
  call void @llvm.lifetime.start.p0(i64 8, ptr %1) #7
  call void @llvm.lifetime.start.p0(i64 8, ptr %2) #7
  %3 = call i32 @proto_register_protocol(ptr noundef @.str.187, ptr noundef @.str.188, ptr noundef @.str.189)
  store i32 %3, ptr @proto_stun, align 4
  %4 = load i32, ptr @proto_stun, align 4
  call void @proto_register_field_array(i32 noundef %4, ptr noundef @proto_register_stun.hf, i32 noundef 89)
  call void @proto_register_subtree_array(ptr noundef @proto_register_stun.ett, i32 noundef 5)
  %5 = load i32, ptr @proto_stun, align 4
  %6 = call ptr @register_heur_dissector_list_with_description(ptr noundef @.str.189, ptr noundef @.str.190, i32 noundef %5)
  store ptr %6, ptr @heur_subdissector_list, align 8
  %7 = load i32, ptr @proto_stun, align 4
  %8 = call ptr @register_dissector(ptr noundef @.str.191, ptr noundef @dissect_stun_tcp, i32 noundef %7)
  %9 = load i32, ptr @proto_stun, align 4
  %10 = call ptr @register_dissector(ptr noundef @.str.192, ptr noundef @dissect_stun_udp, i32 noundef %9)
  %11 = load i32, ptr @proto_stun, align 4
  %12 = call ptr @prefs_register_protocol(i32 noundef %11, ptr noundef null)
  store ptr %12, ptr %1, align 8
  %13 = load ptr, ptr %1, align 8
  call void @prefs_register_enum_preference(ptr noundef %13, ptr noundef @.str.193, ptr noundef @.str.194, ptr noundef @.str.195, ptr noundef @stun_network_version, ptr noundef @stun_network_version_vals, i1 noundef zeroext false)
  %14 = load i32, ptr @proto_stun, align 4
  %15 = call ptr @expert_register_protocol(i32 noundef %14)
  store ptr %15, ptr %2, align 8
  %16 = load ptr, ptr %2, align 8
  call void @expert_register_field_array(ptr noundef %16, ptr noundef @proto_register_stun.ei, i32 noundef 5)
  call void @llvm.lifetime.end.p0(i64 8, ptr %2) #7
  call void @llvm.lifetime.end.p0(i64 8, ptr %1) #7
  ret void
}