; Function Attrs: null_pointer_is_valid sspstrong uwtable
define hidden void @proto_register_stun() local_unnamed_addr #0 {
  %1 = tail call i32 @proto_register_protocol(ptr noundef nonnull @.str.187, ptr noundef nonnull @.str.188, ptr noundef nonnull @.str.189)
  store i32 %1, ptr @proto_stun, align 4
  tail call void @proto_register_field_array(i32 noundef %1, ptr noundef nonnull @proto_register_stun.hf, i32 noundef 89)
  tail call void @proto_register_subtree_array(ptr noundef nonnull @proto_register_stun.ett, i32 noundef 5)
  %2 = load i32, ptr @proto_stun, align 4
  %3 = tail call ptr @register_heur_dissector_list_with_description(ptr noundef nonnull @.str.189, ptr noundef nonnull @.str.190, i32 noundef %2)
  store ptr %3, ptr @heur_subdissector_list, align 8
  %4 = load i32, ptr @proto_stun, align 4
  %5 = tail call ptr @register_dissector(ptr noundef nonnull @.str.191, ptr noundef nonnull @dissect_stun_tcp, i32 noundef %4)
  %6 = load i32, ptr @proto_stun, align 4
  %7 = tail call ptr @register_dissector(ptr noundef nonnull @.str.192, ptr noundef nonnull @dissect_stun_udp, i32 noundef %6)
  %8 = load i32, ptr @proto_stun, align 4
  %9 = tail call ptr @prefs_register_protocol(i32 noundef %8, ptr noundef null)
  tail call void @prefs_register_enum_preference(ptr noundef %9, ptr noundef nonnull @.str.193, ptr noundef nonnull @.str.194, ptr noundef nonnull @.str.195, ptr noundef nonnull @stun_network_version, ptr noundef nonnull @stun_network_version_vals, i1 noundef zeroext false)
  %10 = load i32, ptr @proto_stun, align 4
  %11 = tail call ptr @expert_register_protocol(i32 noundef %10)
  tail call void @expert_register_field_array(ptr noundef %11, ptr noundef nonnull @proto_register_stun.ei, i32 noundef 5)
  ret void
}